target datalayout = "e-m:e-p270:32:32-p271:32:32-p272:64:64-i64:64-i128:128-f80:128-n8:16:32:64-S128"
target triple = "x86_64-pc-linux-gnu"

%struct.CVodeMemRec = type { ptr, double, ptr, ptr, i32, i32, double, double, ptr, i32, i32, ptr, ptr, i32, i32, ptr, i32, i32, double, double, ptr, i32, i32, i32, i32, ptr, ptr, ptr, i32, i32, ptr, ptr, ptr, i32, double, i32, i32, double, ptr, ptr, ptr, i32, ptr, ptr, i32, i32, i32, double, ptr, ptr, ptr, [13 x ptr], ptr, ptr, ptr, ptr, ptr, ptr, ptr, ptr, ptr, [13 x ptr], ptr, ptr, ptr, ptr, [13 x ptr], ptr, ptr, ptr, ptr, ptr, i32, [13 x ptr], ptr, ptr, ptr, ptr, ptr, i32, i32, double, i32, i32, i32, i32, i32, double, double, double, double, double, double, double, double, [14 x double], [6 x double], [13 x double], double, double, double, double, double, double, double, double, i32, double, double, i32, double, double, ptr, i32, i64, i32, i32, i32, double, double, double, double, double, double, double, double, double, double, double, double, i64, i32, i64, i64, i64, i64, i64, i64, i64, i64, i64, ptr, i64, i64, ptr, i64, i64, ptr, i64, i64, i64, i64, i64, i64, i32, double, double, double, i64, i64, i64, i64, i64, i64, ptr, i32, ptr, i32, ptr, i32, ptr, i32, i32, i64, i32, ptr, i32, ptr, ptr, ptr, ptr, ptr, ptr, i32, i32, ptr, ptr, ptr, ptr, ptr, i64, double, i32, i32, i64, double, double, double, i32, i32, double, i32, i32, i32, i32, i32, i32, i32, i32, i32, i32, i32, i32, i32, i32, i32, i32, ptr, i64, i32, [6 x [4 x double]], i32, i64, ptr, i32, ptr, ptr, double, double, double, ptr, ptr, ptr, double, double, i32, i32, i64, ptr, i32, ptr, i32, i32, [13 x double], ptr, ptr, ptr, i32, ptr, i32 }
%struct._generic_N_Vector = type { ptr, ptr, ptr }
%struct._N_VectorContent_SensWrapper = type { ptr, i32, i32 }

@.str = private unnamed_addr constant [123 x i8] c"generated/home/dtcxzyw/WorkSpace/Projects/compilers/llvm-opt-benchmark/bench/sundials/sundials/src/cvodes/cvodes_nls_sim.c\00", align 1
@.str.1 = private unnamed_addr constant [26 x i8] c"cvode_mem = NULL illegal.\00", align 1
@__func__.cvNlsFPFunctionSensSim = private unnamed_addr constant [23 x i8] c"cvNlsFPFunctionSensSim\00", align 1

; Function Attrs: nounwind uwtable
define internal i32 @cvNlsFPFunctionSensSim(ptr noundef %0, ptr noundef %1, ptr noundef %2) #0 {
  %4 = alloca i32, align 4
  %5 = alloca ptr, align 8
  %6 = alloca ptr, align 8
  %7 = alloca ptr, align 8
  %8 = alloca ptr, align 8
  %9 = alloca i32, align 4
  %10 = alloca i32, align 4
  %11 = alloca ptr, align 8
  %12 = alloca ptr, align 8
  %13 = alloca ptr, align 8
  %14 = alloca ptr, align 8
  store ptr %0, ptr %5, align 8
  store ptr %1, ptr %6, align 8
  store ptr %2, ptr %7, align 8
  %15 = load ptr, ptr %7, align 8
  %16 = icmp eq ptr %15, null
  br i1 %16, label %17, label %18

17:                                               ; preds = %3
  call void (ptr, i32, i32, ptr, ptr, ptr, ...) @cvProcessError(ptr noundef null, i32 noundef -21, i32 noundef 529, ptr noundef @__func__.cvNlsFPFunctionSensSim, ptr noundef @.str, ptr noundef @.str.1)
  store i32 -21, ptr %4, align 4
  br label %178

18:                                               ; preds = %3
  %19 = load ptr, ptr %7, align 8
  store ptr %19, ptr %8, align 8
  %20 = load ptr, ptr %5, align 8
  %21 = getelementptr inbounds %struct._generic_N_Vector, ptr %20, i32 0, i32 0
  %22 = load ptr, ptr %21, align 8
  %23 = getelementptr inbounds %struct._N_VectorContent_SensWrapper, ptr %22, i32 0, i32 0
  %24 = load ptr, ptr %23, align 8
  %25 = getelementptr inbounds ptr, ptr %24, i64 0
  %26 = load ptr, ptr %25, align 8
  store ptr %26, ptr %11, align 8
  %27 = load ptr, ptr %6, align 8
  %28 = getelementptr inbounds %struct._generic_N_Vector, ptr %27, i32 0, i32 0
  %29 = load ptr, ptr %28, align 8
  %30 = getelementptr inbounds %struct._N_VectorContent_SensWrapper, ptr %29, i32 0, i32 0
  %31 = load ptr, ptr %30, align 8
  %32 = getelementptr inbounds ptr, ptr %31, i64 0
  %33 = load ptr, ptr %32, align 8
  store ptr %33, ptr %12, align 8
  %34 = load ptr, ptr %8, align 8
  %35 = getelementptr inbounds %struct.CVodeMemRec, ptr %34, i32 0, i32 51
  %36 = getelementptr inbounds [13 x ptr], ptr %35, i64 0, i64 0
  %37 = load ptr, ptr %36, align 8
  %38 = load ptr, ptr %11, align 8
  %39 = load ptr, ptr %8, align 8
  %40 = getelementptr inbounds %struct.CVodeMemRec, ptr %39, i32 0, i32 53
  %41 = load ptr, ptr %40, align 8
  call void @N_VLinearSum(double noundef 1.000000e+00, ptr noundef %37, double noundef 1.000000e+00, ptr noundef %38, ptr noundef %41)
  %42 = load ptr, ptr %8, align 8
  %43 = getelementptr inbounds %struct.CVodeMemRec, ptr %42, i32 0, i32 175
  %44 = load ptr, ptr %43, align 8
  %45 = load ptr, ptr %8, align 8
  %46 = getelementptr inbounds %struct.CVodeMemRec, ptr %45, i32 0, i32 93
  %47 = load double, ptr %46, align 8
  %48 = load ptr, ptr %8, align 8
  %49 = getelementptr inbounds %struct.CVodeMemRec, ptr %48, i32 0, i32 53
  %50 = load ptr, ptr %49, align 8
  %51 = load ptr, ptr %12, align 8
  %52 = load ptr, ptr %8, align 8
  %53 = getelementptr inbounds %struct.CVodeMemRec, ptr %52, i32 0, i32 3
  %54 = load ptr, ptr %53, align 8
  %55 = call i32 %44(double noundef %47, ptr noundef %50, ptr noundef %51, ptr noundef %54)
  store i32 %55, ptr %9, align 4
  %56 = load ptr, ptr %8, align 8
  %57 = getelementptr inbounds %struct.CVodeMemRec, ptr %56, i32 0, i32 133
  %58 = load i64, ptr %57, align 8
  %59 = add nsw i64 %58, 1
  store i64 %59, ptr %57, align 8
  %60 = load i32, ptr %9, align 4
  %61 = icmp slt i32 %60, 0
  br i1 %61, label %62, label %63

62:                                               ; preds = %18
  store i32 -8, ptr %4, align 4
  br label %178

63:                                               ; preds = %18
  %64 = load i32, ptr %9, align 4
  %65 = icmp sgt i32 %64, 0
  br i1 %65, label %66, label %67

66:                                               ; preds = %63
  store i32 10, ptr %4, align 4
  br label %178

67:                                               ; preds = %63
  %68 = load ptr, ptr %8, align 8
  %69 = getelementptr inbounds %struct.CVodeMemRec, ptr %68, i32 0, i32 88
  %70 = load double, ptr %69, align 8
  %71 = load ptr, ptr %12, align 8
  %72 = load ptr, ptr %8, align 8
  %73 = getelementptr inbounds %struct.CVodeMemRec, ptr %72, i32 0, i32 51
  %74 = getelementptr inbounds [13 x ptr], ptr %73, i64 0, i64 1
  %75 = load ptr, ptr %74, align 8
  %76 = load ptr, ptr %12, align 8
  call void @N_VLinearSum(double noundef %70, ptr noundef %71, double noundef -1.000000e+00, ptr noundef %75, ptr noundef %76)
  %77 = load ptr, ptr %8, align 8
  %78 = getelementptr inbounds %struct.CVodeMemRec, ptr %77, i32 0, i32 98
  %79 = load double, ptr %78, align 8
  %80 = load ptr, ptr %12, align 8
  %81 = load ptr, ptr %12, align 8
  call void @N_VScale(double noundef %79, ptr noundef %80, ptr noundef %81)
  %82 = load ptr, ptr %5, align 8
  %83 = getelementptr inbounds %struct._generic_N_Vector, ptr %82, i32 0, i32 0
  %84 = load ptr, ptr %83, align 8
  %85 = getelementptr inbounds %struct._N_VectorContent_SensWrapper, ptr %84, i32 0, i32 0
  %86 = load ptr, ptr %85, align 8
  %87 = getelementptr inbounds ptr, ptr %86, i64 1
  store ptr %87, ptr %13, align 8
  %88 = load ptr, ptr %6, align 8
  %89 = getelementptr inbounds %struct._generic_N_Vector, ptr %88, i32 0, i32 0
  %90 = load ptr, ptr %89, align 8
  %91 = getelementptr inbounds %struct._N_VectorContent_SensWrapper, ptr %90, i32 0, i32 0
  %92 = load ptr, ptr %91, align 8
  %93 = getelementptr inbounds ptr, ptr %92, i64 1
  store ptr %93, ptr %14, align 8
  %94 = load ptr, ptr %8, align 8
  %95 = getelementptr inbounds %struct.CVodeMemRec, ptr %94, i32 0, i32 23
  %96 = load i32, ptr %95, align 8
  %97 = load ptr, ptr %8, align 8
  %98 = getelementptr inbounds %struct.CVodeMemRec, ptr %97, i32 0, i32 66
  %99 = getelementptr inbounds [13 x ptr], ptr %98, i64 0, i64 0
  %100 = load ptr, ptr %99, align 8
  %101 = load ptr, ptr %13, align 8
  %102 = load ptr, ptr %8, align 8
  %103 = getelementptr inbounds %struct.CVodeMemRec, ptr %102, i32 0, i32 68
  %104 = load ptr, ptr %103, align 8
  %105 = call i32 @N_VLinearSumVectorArray(i32 noundef %96, double noundef 1.000000e+00, ptr noundef %100, double noundef 1.000000e+00, ptr noundef %101, ptr noundef %104)
  %106 = load ptr, ptr %8, align 8
  %107 = load ptr, ptr %8, align 8
  %108 = getelementptr inbounds %struct.CVodeMemRec, ptr %107, i32 0, i32 93
  %109 = load double, ptr %108, align 8
  %110 = load ptr, ptr %8, align 8
  %111 = getelementptr inbounds %struct.CVodeMemRec, ptr %110, i32 0, i32 53
  %112 = load ptr, ptr %111, align 8
  %113 = load ptr, ptr %12, align 8
  %114 = load ptr, ptr %8, align 8
  %115 = getelementptr inbounds %struct.CVodeMemRec, ptr %114, i32 0, i32 68
  %116 = load ptr, ptr %115, align 8
  %117 = load ptr, ptr %14, align 8
  %118 = load ptr, ptr %8, align 8
  %119 = getelementptr inbounds %struct.CVodeMemRec, ptr %118, i32 0, i32 57
  %120 = load ptr, ptr %119, align 8
  %121 = load ptr, ptr %8, align 8
  %122 = getelementptr inbounds %struct.CVodeMemRec, ptr %121, i32 0, i32 58
  %123 = load ptr, ptr %122, align 8
  %124 = call i32 @cvSensRhsWrapper(ptr noundef %106, double noundef %109, ptr noundef %112, ptr noundef %113, ptr noundef %116, ptr noundef %117, ptr noundef %120, ptr noundef %123)
  store i32 %124, ptr %9, align 4
  %125 = load i32, ptr %9, align 4
  %126 = icmp slt i32 %125, 0
  br i1 %126, label %127, label %128

127:                                              ; preds = %67
  store i32 -41, ptr %4, align 4
  br label %178

128:                                              ; preds = %67
  %129 = load i32, ptr %9, align 4
  %130 = icmp sgt i32 %129, 0
  br i1 %130, label %131, label %132

131:                                              ; preds = %128
  store i32 15, ptr %4, align 4
  br label %178

132:                                              ; preds = %128
  store i32 0, ptr %10, align 4
  br label %133

133:                                              ; preds = %174, %132
  %134 = load i32, ptr %10, align 4
  %135 = load ptr, ptr %8, align 8
  %136 = getelementptr inbounds %struct.CVodeMemRec, ptr %135, i32 0, i32 23
  %137 = load i32, ptr %136, align 8
  %138 = icmp slt i32 %134, %137
  br i1 %138, label %139, label %177

139:                                              ; preds = %133
  %140 = load ptr, ptr %8, align 8
  %141 = getelementptr inbounds %struct.CVodeMemRec, ptr %140, i32 0, i32 88
  %142 = load double, ptr %141, align 8
  %143 = load ptr, ptr %14, align 8
  %144 = load i32, ptr %10, align 4
  %145 = sext i32 %144 to i64
  %146 = getelementptr inbounds ptr, ptr %143, i64 %145
  %147 = load ptr, ptr %146, align 8
  %148 = load ptr, ptr %8, align 8
  %149 = getelementptr inbounds %struct.CVodeMemRec, ptr %148, i32 0, i32 66
  %150 = getelementptr inbounds [13 x ptr], ptr %149, i64 0, i64 1
  %151 = load ptr, ptr %150, align 8
  %152 = load i32, ptr %10, align 4
  %153 = sext i32 %152 to i64
  %154 = getelementptr inbounds ptr, ptr %151, i64 %153
  %155 = load ptr, ptr %154, align 8
  %156 = load ptr, ptr %14, align 8
  %157 = load i32, ptr %10, align 4
  %158 = sext i32 %157 to i64
  %159 = getelementptr inbounds ptr, ptr %156, i64 %158
  %160 = load ptr, ptr %159, align 8
  call void @N_VLinearSum(double noundef %142, ptr noundef %147, double noundef -1.000000e+00, ptr noundef %155, ptr noundef %160)
  %161 = load ptr, ptr %8, align 8
  %162 = getelementptr inbounds %struct.CVodeMemRec, ptr %161, i32 0, i32 98
  %163 = load double, ptr %162, align 8
  %164 = load ptr, ptr %14, align 8
  %165 = load i32, ptr %10, align 4
  %166 = sext i32 %165 to i64
  %167 = getelementptr inbounds ptr, ptr %164, i64 %166
  %168 = load ptr, ptr %167, align 8
  %169 = load ptr, ptr %14, align 8
  %170 = load i32, ptr %10, align 4
  %171 = sext i32 %170 to i64
  %172 = getelementptr inbounds ptr, ptr %169, i64 %171
  %173 = load ptr, ptr %172, align 8
  call void @N_VScale(double noundef %163, ptr noundef %168, ptr noundef %173)
  br label %174

174:                                              ; preds = %139
  %175 = load i32, ptr %10, align 4
  %176 = add nsw i32 %175, 1
  store i32 %176, ptr %10, align 4
  br label %133

177:                                              ; preds = %133
  store i32 0, ptr %4, align 4
  br label %178

178:                                              ; preds = %177, %131, %127, %66, %62, %17
  %179 = load i32, ptr %4, align 4
  ret i32 %179
}