; Function Attrs: nounwind uwtable
define internal range(i32 -41, 16) i32 @cvNlsFPFunctionSensSim(ptr noundef readonly captures(none) %0, ptr noundef readonly captures(none) %1, ptr noundef %2) #0 {
  %4 = icmp eq ptr %2, null
  br i1 %4, label %5, label %6

5:                                                ; preds = %3
  tail call void (ptr, i32, i32, ptr, ptr, ptr, ...) @cvProcessError(ptr noundef null, i32 noundef -21, i32 noundef 529, ptr noundef nonnull @__func__.cvNlsFPFunctionSensSim, ptr noundef nonnull @.str, ptr noundef nonnull @.str.1) #2
  br label %.loopexit

6:                                                ; preds = %3
  %7 = load ptr, ptr %0, align 8
  %8 = load ptr, ptr %7, align 8
  %9 = load ptr, ptr %8, align 8
  %10 = load ptr, ptr %1, align 8
  %11 = load ptr, ptr %10, align 8
  %12 = load ptr, ptr %11, align 8
  %13 = getelementptr inbounds nuw i8, ptr %2, i64 336
  %14 = load ptr, ptr %13, align 8
  %15 = getelementptr inbounds nuw i8, ptr %2, i64 448
  %16 = load ptr, ptr %15, align 8
  tail call void @N_VLinearSum(double noundef 1.000000e+00, ptr noundef %14, double noundef 1.000000e+00, ptr noundef %9, ptr noundef %16) #2
  %17 = getelementptr inbounds nuw i8, ptr %2, i64 1912
  %18 = load ptr, ptr %17, align 8
  %19 = getelementptr inbounds nuw i8, ptr %2, i64 1032
  %20 = load double, ptr %19, align 8
  %21 = load ptr, ptr %15, align 8
  %22 = getelementptr inbounds nuw i8, ptr %2, i64 24
  %23 = load ptr, ptr %22, align 8
  %24 = tail call i32 %18(double noundef %20, ptr noundef %21, ptr noundef %12, ptr noundef %23) #2
  %25 = getelementptr inbounds nuw i8, ptr %2, i64 1584
  %26 = load i64, ptr %25, align 8
  %27 = add nsw i64 %26, 1
  store i64 %27, ptr %25, align 8
  %28 = icmp slt i32 %24, 0
  br i1 %28, label %.loopexit, label %29

29:                                               ; preds = %6
  %.not = icmp eq i32 %24, 0
  br i1 %.not, label %30, label %.loopexit

30:                                               ; preds = %29
  %31 = getelementptr inbounds nuw i8, ptr %2, i64 992
  %32 = load double, ptr %31, align 8
  %33 = getelementptr inbounds nuw i8, ptr %2, i64 344
  %34 = load ptr, ptr %33, align 8
  tail call void @N_VLinearSum(double noundef %32, ptr noundef %12, double noundef -1.000000e+00, ptr noundef %34, ptr noundef %12) #2
  %35 = getelementptr inbounds nuw i8, ptr %2, i64 1312
  %36 = load double, ptr %35, align 8
  tail call void @N_VScale(double noundef %36, ptr noundef %12, ptr noundef %12) #2
  %37 = load ptr, ptr %0, align 8
  %38 = load ptr, ptr %37, align 8
  %39 = getelementptr inbounds nuw i8, ptr %38, i64 8
  %40 = load ptr, ptr %1, align 8
  %41 = load ptr, ptr %40, align 8
  %42 = getelementptr inbounds nuw i8, ptr %41, i64 8
  %43 = getelementptr inbounds nuw i8, ptr %2, i64 144
  %44 = load i32, ptr %43, align 8
  %45 = getelementptr inbounds nuw i8, ptr %2, i64 648
  %46 = load ptr, ptr %45, align 8
  %47 = getelementptr inbounds nuw i8, ptr %2, i64 760
  %48 = load ptr, ptr %47, align 8
  %49 = tail call i32 @N_VLinearSumVectorArray(i32 noundef %44, double noundef 1.000000e+00, ptr noundef %46, double noundef 1.000000e+00, ptr noundef nonnull %39, ptr noundef %48) #2
  %50 = load double, ptr %19, align 8
  %51 = load ptr, ptr %15, align 8
  %52 = load ptr, ptr %47, align 8
  %53 = getelementptr inbounds nuw i8, ptr %2, i64 480
  %54 = load ptr, ptr %53, align 8
  %55 = getelementptr inbounds nuw i8, ptr %2, i64 488
  %56 = load ptr, ptr %55, align 8
  %57 = tail call i32 @cvSensRhsWrapper(ptr noundef nonnull %2, double noundef %50, ptr noundef %51, ptr noundef %12, ptr noundef %52, ptr noundef nonnull %42, ptr noundef %54, ptr noundef %56) #2
  %58 = icmp slt i32 %57, 0
  br i1 %58, label %.loopexit, label %59

59:                                               ; preds = %30
  %.not57 = icmp eq i32 %57, 0
  br i1 %.not57, label %.preheader, label %.loopexit

.preheader:                                       ; preds = %59
  %60 = load i32, ptr %43, align 8
  %61 = icmp sgt i32 %60, 0
  br i1 %61, label %.lr.ph, label %.loopexit

.lr.ph:                                           ; preds = %.preheader
  %62 = getelementptr inbounds nuw i8, ptr %2, i64 656
  br label %63

63:                                               ; preds = %.lr.ph, %63
  %indvars.iv = phi i64 [ 0, %.lr.ph ], [ %indvars.iv.next, %63 ]
  %64 = load double, ptr %31, align 8
  %65 = getelementptr inbounds nuw ptr, ptr %42, i64 %indvars.iv
  %66 = load ptr, ptr %65, align 8
  %67 = load ptr, ptr %62, align 8
  %68 = getelementptr inbounds nuw ptr, ptr %67, i64 %indvars.iv
  %69 = load ptr, ptr %68, align 8
  tail call void @N_VLinearSum(double noundef %64, ptr noundef %66, double noundef -1.000000e+00, ptr noundef %69, ptr noundef %66) #2
  %70 = load double, ptr %35, align 8
  %71 = load ptr, ptr %65, align 8
  tail call void @N_VScale(double noundef %70, ptr noundef %71, ptr noundef %71) #2
  %indvars.iv.next = add nuw nsw i64 %indvars.iv, 1
  %72 = load i32, ptr %43, align 8
  %73 = sext i32 %72 to i64
  %74 = icmp slt i64 %indvars.iv.next, %73
  br i1 %74, label %63, label %.loopexit

.loopexit:                                        ; preds = %63, %.preheader, %59, %30, %29, %6, %5
  %.0 = phi i32 [ -21, %5 ], [ -8, %6 ], [ 10, %29 ], [ -41, %30 ], [ 15, %59 ], [ 0, %.preheader ], [ 0, %63 ]
  ret i32 %.0
}